; ModuleID = 'source-C-CXX/59/1902.c'
source_filename = "source-C-CXX/59/1902.c"
target datalayout = "e-m:e-p270:32:32-p271:32:32-p272:64:64-i64:64-f80:128-n8:16:32:64-S128"
target triple = "x86_64-pc-linux-gnu"

@.str = private unnamed_addr constant [3 x i8] c"%d\00", align 1
@.str.1 = private unnamed_addr constant [7 x i8] c"%d %d\0A\00", align 1
@str = private unnamed_addr constant [6 x i8] c"empty\00", align 1

; Function Attrs: nofree norecurse nosync nounwind readnone sspstrong uwtable
define dso_local i32 @Prime(i32 %0) local_unnamed_addr #0 {
  %2 = icmp slt i32 %0, 2
  br i1 %2, label %14, label %3

3:                                                ; preds = %1
  %4 = icmp sgt i32 %0, 3
  br i1 %4, label %5, label %14

5:                                                ; preds = %3
  %6 = lshr i32 %0, 1
  br label %10

7:                                                ; preds = %10
  %8 = add nuw nsw i32 %11, 1
  %9 = icmp eq i32 %11, %6
  br i1 %9, label %14, label %10, !llvm.loop !5

10:                                               ; preds = %5, %7
  %11 = phi i32 [ %8, %7 ], [ 2, %5 ]
  %12 = srem i32 %0, %11
  %13 = icmp eq i32 %12, 0
  br i1 %13, label %14, label %7

14:                                               ; preds = %10, %7, %3, %1
  %15 = phi i32 [ 0, %1 ], [ 1, %3 ], [ 0, %10 ], [ 1, %7 ]
  ret i32 %15
}

; Function Attrs: argmemonly mustprogress nofree nosync nounwind willreturn
declare void @llvm.lifetime.start.p0i8(i64 immarg, i8* nocapture) #1

; Function Attrs: argmemonly mustprogress nofree nosync nounwind willreturn
declare void @llvm.lifetime.end.p0i8(i64 immarg, i8* nocapture) #1

; Function Attrs: nofree nounwind sspstrong uwtable
define dso_local i32 @main() local_unnamed_addr #2 {
  %1 = alloca i32, align 4
  %2 = bitcast i32* %1 to i8*
  call void @llvm.lifetime.start.p0i8(i64 4, i8* nonnull %2) #5
  %3 = call i32 (i8*, ...) @__isoc99_scanf(i8* getelementptr inbounds ([3 x i8], [3 x i8]* @.str, i64 0, i64 0), i32* nonnull %1)
  %4 = load i32, i32* %1, align 4, !tbaa !7
  %5 = icmp slt i32 %4, 1
  br i1 %5, label %43, label %6

6:                                                ; preds = %0, %36
  %7 = phi i32 [ %37, %36 ], [ %4, %0 ]
  %8 = phi i32 [ %38, %36 ], [ 0, %0 ]
  %9 = phi i32 [ %39, %36 ], [ 1, %0 ]
  %10 = icmp ugt i32 %9, 3
  br i1 %10, label %11, label %36

11:                                               ; preds = %6
  %12 = lshr i32 %9, 1
  br label %16

13:                                               ; preds = %16
  %14 = add nuw nsw i32 %17, 1
  %15 = icmp eq i32 %17, %12
  br i1 %15, label %20, label %16, !llvm.loop !5

16:                                               ; preds = %13, %11
  %17 = phi i32 [ %14, %13 ], [ 2, %11 ]
  %18 = urem i32 %9, %17
  %19 = icmp eq i32 %18, 0
  br i1 %19, label %36, label %13

20:                                               ; preds = %13
  %21 = add nsw i32 %9, -2
  %22 = icmp ugt i32 %9, 5
  br i1 %22, label %23, label %32

23:                                               ; preds = %20
  %24 = lshr i32 %21, 1
  br label %28

25:                                               ; preds = %28
  %26 = add nuw nsw i32 %29, 1
  %27 = icmp eq i32 %29, %24
  br i1 %27, label %32, label %28, !llvm.loop !5

28:                                               ; preds = %25, %23
  %29 = phi i32 [ %26, %25 ], [ 2, %23 ]
  %30 = srem i32 %21, %29
  %31 = icmp eq i32 %30, 0
  br i1 %31, label %36, label %25

32:                                               ; preds = %25, %20
  %33 = call i32 (i8*, ...) @printf(i8* nonnull dereferenceable(1) getelementptr inbounds ([7 x i8], [7 x i8]* @.str.1, i64 0, i64 0), i32 %21, i32 %9)
  %34 = add nsw i32 %8, 1
  %35 = load i32, i32* %1, align 4, !tbaa !7
  br label %36

36:                                               ; preds = %16, %28, %6, %32
  %37 = phi i32 [ %35, %32 ], [ %7, %6 ], [ %7, %28 ], [ %7, %16 ]
  %38 = phi i32 [ %34, %32 ], [ %8, %6 ], [ %8, %28 ], [ %8, %16 ]
  %39 = add nuw nsw i32 %9, 1
  %40 = icmp slt i32 %9, %37
  br i1 %40, label %6, label %41, !llvm.loop !11

41:                                               ; preds = %36
  %42 = icmp eq i32 %38, 0
  br i1 %42, label %43, label %45

43:                                               ; preds = %0, %41
  %44 = call i32 @puts(i8* nonnull dereferenceable(1) getelementptr inbounds ([6 x i8], [6 x i8]* @str, i64 0, i64 0))
  br label %45

45:                                               ; preds = %43, %41
  call void @llvm.lifetime.end.p0i8(i64 4, i8* nonnull %2) #5
  ret i32 0
}

; Function Attrs: nofree nounwind
declare noundef i32 @__isoc99_scanf(i8* nocapture noundef readonly, ...) local_unnamed_addr #3

; Function Attrs: nofree nounwind
declare noundef i32 @printf(i8* nocapture noundef readonly, ...) local_unnamed_addr #3

; Function Attrs: nofree nounwind
declare noundef i32 @puts(i8* nocapture noundef readonly) local_unnamed_addr #4


!llvm.module.flags = !{!0, !1, !2, !3}
!llvm.ident = !{!4}

!0 = !{i32 1, !"wchar_size", i32 4}
!1 = !{i32 7, !"PIC Level", i32 2}
!2 = !{i32 7, !"PIE Level", i32 2}
!3 = !{i32 7, !"uwtable", i32 1}
!4 = !{!"clang version 13.0.0"}
!5 = distinct !{!5, !6}
!6 = !{!"llvm.loop.mustprogress"}
!7 = !{!8, !8, i64 0}
!8 = !{!"int", !9, i64 0}
!9 = !{!"omnipotent char", !10, i64 0}
!10 = !{!"Simple C/C++ TBAA"}
!11 = distinct !{!11, !6}
